; Function Attrs: nounwind uwtable
define noalias ptr @_emalloc_320() local_unnamed_addr #0 {
  %1 = load ptr, ptr @alloc_globals.0, align 8
  %2 = load i32, ptr %1, align 8
  %.not = icmp eq i32 %2, 0
  br i1 %.not, label %7, label %3

3:                                                ; preds = %0
  %4 = getelementptr inbounds i8, ptr %1, i64 360
  %5 = load ptr, ptr %4, align 8
  %6 = tail call ptr %5(i64 noundef 320) #35
  br label %zend_mm_alloc_small_slow.exit

7:                                                ; preds = %0
  %8 = getelementptr inbounds i8, ptr %1, i64 16
  %9 = load i64, ptr %8, align 8
  %10 = add i64 %9, 320
  %11 = getelementptr inbounds i8, ptr %1, i64 24
  %12 = load i64, ptr %11, align 8
  %. = tail call i64 @llvm.umax.i64(i64 %12, i64 %10)
  store i64 %10, ptr %8, align 8
  store i64 %., ptr %11, align 8
  %13 = getelementptr inbounds i8, ptr %1, i64 160
  %14 = load ptr, ptr %13, align 8
  %.not25 = icmp eq ptr %14, null
  br i1 %.not25, label %17, label %15

15:                                               ; preds = %7
  %16 = load ptr, ptr %14, align 8
  store ptr %16, ptr %13, align 8
  br label %zend_mm_alloc_small_slow.exit

17:                                               ; preds = %7
  %18 = tail call fastcc ptr @zend_mm_alloc_pages(ptr noundef nonnull %1, i32 noundef 5)
  %19 = icmp eq ptr %18, null
  br i1 %19, label %zend_mm_alloc_small_slow.exit, label %20

20:                                               ; preds = %17
  %21 = ptrtoint ptr %18 to i64
  %22 = and i64 %21, -2097152
  %23 = inttoptr i64 %22 to ptr
  %24 = trunc i64 %21 to i32
  %25 = lshr i32 %24, 12
  %26 = and i32 %25, 511
  %27 = getelementptr inbounds i8, ptr %23, i64 520
  %28 = zext nneg i32 %26 to i64
  %29 = getelementptr inbounds [512 x i32], ptr %27, i64 0, i64 %28
  store i32 -2147483632, ptr %29, align 4
  br label %30

30:                                               ; preds = %30, %20
  %indvars.iv.i = phi i64 [ 1, %20 ], [ %indvars.iv.next.i, %30 ]
  %31 = trunc i64 %indvars.iv.i to i32
  %32 = shl i32 %31, 16
  %33 = or i32 %32, -1073741808
  %34 = add i32 %26, %31
  %35 = zext i32 %34 to i64
  %36 = getelementptr inbounds [512 x i32], ptr %27, i64 0, i64 %35
  store i32 %33, ptr %36, align 4
  %indvars.iv.next.i = add nuw nsw i64 %indvars.iv.i, 1
  %exitcond.not.i = icmp eq i64 %indvars.iv.next.i, 5
  br i1 %exitcond.not.i, label %.loopexit.i, label %30

.loopexit.i:                                      ; preds = %30
  %.ptr26 = getelementptr inbounds i8, ptr %18, i64 320
  store ptr %.ptr26, ptr %13, align 8
  br label %37

37:                                               ; preds = %37, %.loopexit.i
  %.034.i.idx = phi i64 [ 320, %.loopexit.i ], [ %.034.i.add, %37 ]
  %.034.i.ptr = getelementptr inbounds i8, ptr %18, i64 %.034.i.idx
  %.034.i.add = add nuw nsw i64 %.034.i.idx, 320
  %.ptr = getelementptr inbounds i8, ptr %18, i64 %.034.i.add
  store ptr %.ptr, ptr %.034.i.ptr, align 8
  %.not37.i = icmp eq i64 %.034.i.add, 20160
  br i1 %.not37.i, label %38, label %37

38:                                               ; preds = %37
  %39 = getelementptr inbounds i8, ptr %18, i64 20160
  store ptr null, ptr %39, align 8
  br label %zend_mm_alloc_small_slow.exit

zend_mm_alloc_small_slow.exit:                    ; preds = %38, %17, %15, %3
  %.0 = phi ptr [ %6, %3 ], [ %14, %15 ], [ null, %17 ], [ %18, %38 ]
  ret ptr %.0
}